target datalayout = "e-m:e-p270:32:32-p271:32:32-p272:64:64-i64:64-i128:128-f80:128-n8:16:32:64-S128"
target triple = "x86_64-pc-linux-gnu"

%struct.SN_env = type { ptr, i32, i32, i32, i32, i32, ptr, ptr }

; Function Attrs: nounwind uwtable
define internal i32 @r_undouble(ptr noundef %0) #0 {
  %2 = alloca i32, align 4
  %3 = alloca ptr, align 8
  %4 = alloca i32, align 4
  %5 = alloca i32, align 4
  %6 = alloca i32, align 4
  %7 = alloca i32, align 4
  store ptr %0, ptr %3, align 8
  call void @llvm.lifetime.start.p0(i64 4, ptr %4) #3
  %8 = load ptr, ptr %3, align 8
  %9 = getelementptr inbounds nuw %struct.SN_env, ptr %8, i32 0, i32 0
  %10 = load ptr, ptr %9, align 8
  %11 = load ptr, ptr %3, align 8
  %12 = getelementptr inbounds nuw %struct.SN_env, ptr %11, i32 0, i32 1
  %13 = load i32, ptr %12, align 8
  %14 = load ptr, ptr %3, align 8
  %15 = getelementptr inbounds nuw %struct.SN_env, ptr %14, i32 0, i32 3
  %16 = load i32, ptr %15, align 8
  %17 = call i32 @skip_b_utf8(ptr noundef %10, i32 noundef %13, i32 noundef %16, i32 noundef 1)
  store i32 %17, ptr %4, align 4
  %18 = load i32, ptr %4, align 4
  %19 = icmp slt i32 %18, 0
  br i1 %19, label %20, label %21

20:                                               ; preds = %1
  store i32 0, ptr %2, align 4
  store i32 1, ptr %5, align 4
  br label %25

21:                                               ; preds = %1
  %22 = load i32, ptr %4, align 4
  %23 = load ptr, ptr %3, align 8
  %24 = getelementptr inbounds nuw %struct.SN_env, ptr %23, i32 0, i32 1
  store i32 %22, ptr %24, align 8
  store i32 0, ptr %5, align 4
  br label %25

25:                                               ; preds = %21, %20
  call void @llvm.lifetime.end.p0(i64 4, ptr %4) #3
  %26 = load i32, ptr %5, align 4
  switch i32 %26, label %70 [
    i32 0, label %27
    i32 1, label %68
  ]

27:                                               ; preds = %25
  %28 = load ptr, ptr %3, align 8
  %29 = getelementptr inbounds nuw %struct.SN_env, ptr %28, i32 0, i32 1
  %30 = load i32, ptr %29, align 8
  %31 = load ptr, ptr %3, align 8
  %32 = getelementptr inbounds nuw %struct.SN_env, ptr %31, i32 0, i32 5
  store i32 %30, ptr %32, align 8
  call void @llvm.lifetime.start.p0(i64 4, ptr %6) #3
  %33 = load ptr, ptr %3, align 8
  %34 = getelementptr inbounds nuw %struct.SN_env, ptr %33, i32 0, i32 0
  %35 = load ptr, ptr %34, align 8
  %36 = load ptr, ptr %3, align 8
  %37 = getelementptr inbounds nuw %struct.SN_env, ptr %36, i32 0, i32 1
  %38 = load i32, ptr %37, align 8
  %39 = load ptr, ptr %3, align 8
  %40 = getelementptr inbounds nuw %struct.SN_env, ptr %39, i32 0, i32 3
  %41 = load i32, ptr %40, align 8
  %42 = call i32 @skip_b_utf8(ptr noundef %35, i32 noundef %38, i32 noundef %41, i32 noundef 1)
  store i32 %42, ptr %6, align 4
  %43 = load i32, ptr %6, align 4
  %44 = icmp slt i32 %43, 0
  br i1 %44, label %45, label %46

45:                                               ; preds = %27
  store i32 0, ptr %2, align 4
  store i32 1, ptr %5, align 4
  br label %50

46:                                               ; preds = %27
  %47 = load i32, ptr %6, align 4
  %48 = load ptr, ptr %3, align 8
  %49 = getelementptr inbounds nuw %struct.SN_env, ptr %48, i32 0, i32 1
  store i32 %47, ptr %49, align 8
  store i32 0, ptr %5, align 4
  br label %50

50:                                               ; preds = %46, %45
  call void @llvm.lifetime.end.p0(i64 4, ptr %6) #3
  %51 = load i32, ptr %5, align 4
  switch i32 %51, label %70 [
    i32 0, label %52
    i32 1, label %68
  ]

52:                                               ; preds = %50
  %53 = load ptr, ptr %3, align 8
  %54 = getelementptr inbounds nuw %struct.SN_env, ptr %53, i32 0, i32 1
  %55 = load i32, ptr %54, align 8
  %56 = load ptr, ptr %3, align 8
  %57 = getelementptr inbounds nuw %struct.SN_env, ptr %56, i32 0, i32 4
  store i32 %55, ptr %57, align 4
  call void @llvm.lifetime.start.p0(i64 4, ptr %7) #3
  %58 = load ptr, ptr %3, align 8
  %59 = call i32 @slice_del(ptr noundef %58)
  store i32 %59, ptr %7, align 4
  %60 = load i32, ptr %7, align 4
  %61 = icmp slt i32 %60, 0
  br i1 %61, label %62, label %64

62:                                               ; preds = %52
  %63 = load i32, ptr %7, align 4
  store i32 %63, ptr %2, align 4
  store i32 1, ptr %5, align 4
  br label %65

64:                                               ; preds = %52
  store i32 0, ptr %5, align 4
  br label %65

65:                                               ; preds = %64, %62
  call void @llvm.lifetime.end.p0(i64 4, ptr %7) #3
  %66 = load i32, ptr %5, align 4
  switch i32 %66, label %70 [
    i32 0, label %67
    i32 1, label %68
  ]

67:                                               ; preds = %65
  store i32 1, ptr %2, align 4
  br label %68

68:                                               ; preds = %67, %65, %50, %25
  %69 = load i32, ptr %2, align 4
  ret i32 %69

70:                                               ; preds = %65, %50, %25
  unreachable
}