; Function Attrs: nounwind uwtable
define internal fastcc range(i32 -2147483648, 2) i32 @r_undouble(ptr noundef %0) unnamed_addr #0 {
  %2 = load ptr, ptr %0, align 8
  %3 = getelementptr inbounds nuw i8, ptr %0, i64 8
  %4 = load i32, ptr %3, align 8
  %5 = getelementptr inbounds nuw i8, ptr %0, i64 16
  %6 = load i32, ptr %5, align 8
  %7 = tail call i32 @skip_b_utf8(ptr noundef %2, i32 noundef %4, i32 noundef %6, i32 noundef 1) #3
  %8 = icmp slt i32 %7, 0
  br i1 %8, label %19, label %9

9:                                                ; preds = %1
  store i32 %7, ptr %3, align 8
  %10 = getelementptr inbounds nuw i8, ptr %0, i64 24
  store i32 %7, ptr %10, align 8
  %11 = load ptr, ptr %0, align 8
  %12 = load i32, ptr %5, align 8
  %13 = tail call i32 @skip_b_utf8(ptr noundef %11, i32 noundef %7, i32 noundef %12, i32 noundef 1) #3
  %14 = icmp slt i32 %13, 0
  br i1 %14, label %19, label %15

15:                                               ; preds = %9
  store i32 %13, ptr %3, align 8
  %16 = getelementptr inbounds nuw i8, ptr %0, i64 20
  store i32 %13, ptr %16, align 4
  %17 = tail call i32 @slice_del(ptr noundef nonnull %0) #3
  %18 = icmp sgt i32 %17, -1
  %. = tail call i32 @llvm.smin.i32(i32 %17, i32 0)
  %spec.select = select i1 %18, i32 1, i32 %.
  br label %19

19:                                               ; preds = %9, %1, %15
  %.1 = phi i32 [ %spec.select, %15 ], [ 0, %1 ], [ 0, %9 ]
  ret i32 %.1
}